
Test3ASF.elf:     file format elf32-littlearm

Sections:
Idx Name          Size      VMA       LMA       File off  Algn
  0 .text         00000bdc  00080000  00080000  00010000  2**2
                  CONTENTS, ALLOC, LOAD, READONLY, CODE
  1 .relocate     00000574  20070000  00080bdc  00020000  2**3
                  CONTENTS, ALLOC, LOAD, CODE
  2 .bss          000001f8  20070574  00081150  00020574  2**2
                  ALLOC
  3 .stack        00002004  2007076c  00081348  00020574  2**0
                  ALLOC
  4 .ARM.attributes 00000029  00000000  00000000  00020574  2**0
                  CONTENTS, READONLY
  5 .comment      00000059  00000000  00000000  0002059d  2**0
                  CONTENTS, READONLY
  6 .debug_info   0000d039  00000000  00000000  000205f6  2**0
                  CONTENTS, READONLY, DEBUGGING
  7 .debug_abbrev 0000206c  00000000  00000000  0002d62f  2**0
                  CONTENTS, READONLY, DEBUGGING
  8 .debug_loc    00001fca  00000000  00000000  0002f69b  2**0
                  CONTENTS, READONLY, DEBUGGING
  9 .debug_aranges 00000530  00000000  00000000  00031665  2**0
                  CONTENTS, READONLY, DEBUGGING
 10 .debug_ranges 00000490  00000000  00000000  00031b95  2**0
                  CONTENTS, READONLY, DEBUGGING
 11 .debug_macro  00017661  00000000  00000000  00032025  2**0
                  CONTENTS, READONLY, DEBUGGING
 12 .debug_line   0000a991  00000000  00000000  00049686  2**0
                  CONTENTS, READONLY, DEBUGGING
 13 .debug_str    00062840  00000000  00000000  00054017  2**0
                  CONTENTS, READONLY, DEBUGGING
 14 .debug_frame  00000bf4  00000000  00000000  000b6858  2**2
                  CONTENTS, READONLY, DEBUGGING

Disassembly of section .text:

00080000 <exception_table>:
   80000:	70 27 07 20 95 08 08 00 91 08 08 00 91 08 08 00     p'. ............
   80010:	91 08 08 00 91 08 08 00 91 08 08 00 00 00 00 00     ................
	...
   8002c:	91 08 08 00 91 08 08 00 00 00 00 00 91 08 08 00     ................
   8003c:	91 08 08 00 91 08 08 00 91 08 08 00 91 08 08 00     ................
   8004c:	91 08 08 00 91 08 08 00 91 08 08 00 91 08 08 00     ................
   8005c:	91 08 08 00 91 08 08 00 91 08 08 00 00 00 00 00     ................
   8006c:	05 07 08 00 19 07 08 00 2d 07 08 00 41 07 08 00     ........-...A...
	...
   80084:	91 08 08 00 91 08 08 00 91 08 08 00 91 08 08 00     ................
   80094:	91 08 08 00 91 08 08 00 91 08 08 00 91 08 08 00     ................
   800a4:	00 00 00 00 91 08 08 00 91 08 08 00 91 08 08 00     ................
   800b4:	91 08 08 00 91 08 08 00 91 08 08 00 91 08 08 00     ................
   800c4:	91 08 08 00 91 08 08 00 91 08 08 00 91 08 08 00     ................
   800d4:	91 08 08 00 91 08 08 00 91 08 08 00 91 08 08 00     ................
   800e4:	91 08 08 00 91 08 08 00 91 08 08 00 91 08 08 00     ................

000800f4 <__do_global_dtors_aux>:
   800f4:	b510      	push	{r4, lr}
   800f6:	4c05      	ldr	r4, [pc, #20]	; (8010c <__do_global_dtors_aux+0x18>)
   800f8:	7823      	ldrb	r3, [r4, #0]
   800fa:	b933      	cbnz	r3, 8010a <__do_global_dtors_aux+0x16>
   800fc:	4b04      	ldr	r3, [pc, #16]	; (80110 <__do_global_dtors_aux+0x1c>)
   800fe:	b113      	cbz	r3, 80106 <__do_global_dtors_aux+0x12>
   80100:	4804      	ldr	r0, [pc, #16]	; (80114 <__do_global_dtors_aux+0x20>)
   80102:	f3af 8000 	nop.w
   80106:	2301      	movs	r3, #1
   80108:	7023      	strb	r3, [r4, #0]
   8010a:	bd10      	pop	{r4, pc}
   8010c:	20070574 	.word	0x20070574
   80110:	00000000 	.word	0x00000000
   80114:	00080bdc 	.word	0x00080bdc

00080118 <frame_dummy>:
   80118:	4b0c      	ldr	r3, [pc, #48]	; (8014c <frame_dummy+0x34>)
   8011a:	b143      	cbz	r3, 8012e <frame_dummy+0x16>
   8011c:	480c      	ldr	r0, [pc, #48]	; (80150 <frame_dummy+0x38>)
   8011e:	b510      	push	{r4, lr}
   80120:	490c      	ldr	r1, [pc, #48]	; (80154 <frame_dummy+0x3c>)
   80122:	f3af 8000 	nop.w
   80126:	480c      	ldr	r0, [pc, #48]	; (80158 <frame_dummy+0x40>)
   80128:	6803      	ldr	r3, [r0, #0]
   8012a:	b923      	cbnz	r3, 80136 <frame_dummy+0x1e>
   8012c:	bd10      	pop	{r4, pc}
   8012e:	480a      	ldr	r0, [pc, #40]	; (80158 <frame_dummy+0x40>)
   80130:	6803      	ldr	r3, [r0, #0]
   80132:	b933      	cbnz	r3, 80142 <frame_dummy+0x2a>
   80134:	4770      	bx	lr
   80136:	4b09      	ldr	r3, [pc, #36]	; (8015c <frame_dummy+0x44>)
   80138:	2b00      	cmp	r3, #0
   8013a:	d0f7      	beq.n	8012c <frame_dummy+0x14>
   8013c:	e8bd 4010 	ldmia.w	sp!, {r4, lr}
   80140:	4718      	bx	r3
   80142:	4b06      	ldr	r3, [pc, #24]	; (8015c <frame_dummy+0x44>)
   80144:	2b00      	cmp	r3, #0
   80146:	d0f5      	beq.n	80134 <frame_dummy+0x1c>
   80148:	4718      	bx	r3
   8014a:	bf00      	nop
   8014c:	00000000 	.word	0x00000000
   80150:	00080bdc 	.word	0x00080bdc
   80154:	20070578 	.word	0x20070578
   80158:	00080bdc 	.word	0x00080bdc
   8015c:	00000000 	.word	0x00000000

00080160 <ErrorLed>:
 #include "../Header/appli.h"

 t_ptf32 pErrorFunc = ErrorLed;

 uint32_t ErrorLed(uint32_t err, ...)
 {
   80160:	b40f      	push	{r0, r1, r2, r3}
   80162:	e92d 47f0 	stmdb	sp!, {r4, r5, r6, r7, r8, r9, sl, lr}
   80166:	9b08      	ldr	r3, [sp, #32]
		delay_s(2);
		gpio_set_pin_low(LED0_GPIO);
		delay_ms(500);

		//Display tens of error code
		for(i=0; i<err/10; i++)
   80168:	4e19      	ldr	r6, [pc, #100]	; (801d0 <ErrorLed+0x70>)
   8016a:	fba6 2603 	umull	r2, r6, r6, r3
   8016e:	08f6      	lsrs	r6, r6, #3
			
		}
		delay_ms(400);

		//Display units of error code
		for(i=0; i<err%10; i++)
   80170:	eb06 0986 	add.w	r9, r6, r6, lsl #2
   80174:	eba3 0949 	sub.w	r9, r3, r9, lsl #1
		gpio_set_pin_high(LED0_GPIO);
   80178:	273b      	movs	r7, #59	; 0x3b
		delay_s(2);
   8017a:	f8df 806c 	ldr.w	r8, [pc, #108]	; 801e8 <ErrorLed+0x88>
   8017e:	4d15      	ldr	r5, [pc, #84]	; (801d4 <ErrorLed+0x74>)
   80180:	e001      	b.n	80186 <ErrorLed+0x26>
			gpio_set_pin_high(LED0_GPIO);
			delay_s(2);
			gpio_set_pin_low(LED0_GPIO);
			delay_ms(500);
		}
		delay_s(2);
   80182:	4640      	mov	r0, r8
   80184:	47a8      	blx	r5
		gpio_set_pin_high(LED0_GPIO);
   80186:	4638      	mov	r0, r7
   80188:	4b13      	ldr	r3, [pc, #76]	; (801d8 <ErrorLed+0x78>)
   8018a:	4798      	blx	r3
		delay_s(2);
   8018c:	4640      	mov	r0, r8
   8018e:	47a8      	blx	r5
		gpio_set_pin_low(LED0_GPIO);
   80190:	4638      	mov	r0, r7
   80192:	4b12      	ldr	r3, [pc, #72]	; (801dc <ErrorLed+0x7c>)
   80194:	4798      	blx	r3
		delay_ms(500);
   80196:	4812      	ldr	r0, [pc, #72]	; (801e0 <ErrorLed+0x80>)
   80198:	47a8      	blx	r5
		for(i=0; i<err/10; i++)
   8019a:	b11e      	cbz	r6, 801a4 <ErrorLed+0x44>
   8019c:	2300      	movs	r3, #0
   8019e:	3301      	adds	r3, #1
   801a0:	42b3      	cmp	r3, r6
   801a2:	d1fc      	bne.n	8019e <ErrorLed+0x3e>
		delay_ms(400);
   801a4:	480f      	ldr	r0, [pc, #60]	; (801e4 <ErrorLed+0x84>)
   801a6:	47a8      	blx	r5
		for(i=0; i<err%10; i++)
   801a8:	f1b9 0f00 	cmp.w	r9, #0
   801ac:	d0e9      	beq.n	80182 <ErrorLed+0x22>
   801ae:	2400      	movs	r4, #0
			gpio_set_pin_high(LED0_GPIO);
   801b0:	f8df a024 	ldr.w	sl, [pc, #36]	; 801d8 <ErrorLed+0x78>
   801b4:	4638      	mov	r0, r7
   801b6:	47d0      	blx	sl
			delay_s(2);
   801b8:	4640      	mov	r0, r8
   801ba:	47a8      	blx	r5
			gpio_set_pin_low(LED0_GPIO);
   801bc:	4638      	mov	r0, r7
   801be:	4b07      	ldr	r3, [pc, #28]	; (801dc <ErrorLed+0x7c>)
   801c0:	4798      	blx	r3
			delay_ms(500);
   801c2:	4807      	ldr	r0, [pc, #28]	; (801e0 <ErrorLed+0x80>)
   801c4:	47a8      	blx	r5
		for(i=0; i<err%10; i++)
   801c6:	3401      	adds	r4, #1
   801c8:	454c      	cmp	r4, r9
   801ca:	d1f3      	bne.n	801b4 <ErrorLed+0x54>
   801cc:	e7d9      	b.n	80182 <ErrorLed+0x22>
   801ce:	bf00      	nop
   801d0:	cccccccd 	.word	0xcccccccd
   801d4:	20070001 	.word	0x20070001
   801d8:	000804f3 	.word	0x000804f3
   801dc:	0008050d 	.word	0x0008050d
   801e0:	002dc6c0 	.word	0x002dc6c0
   801e4:	00249f00 	.word	0x00249f00
   801e8:	00b71b00 	.word	0x00b71b00

000801ec <Sablier>:
	
}


void Sablier(uint32_t sc, t_param i)
{
   801ec:	b508      	push	{r3, lr}
		const uint32_t beat[] = {
		60,400,60,1000,0
		};

		switch(sc)
   801ee:	2864      	cmp	r0, #100	; 0x64
   801f0:	d007      	beq.n	80202 <Sablier+0x16>
   801f2:	2866      	cmp	r0, #102	; 0x66
   801f4:	d008      	beq.n	80208 <Sablier+0x1c>
			delay_ms(2000);
			if(!beat[++i.k]) i.k=0;

			break;
		default:
			Error(ERR_SABLIER_SWITCH_BAD_SC, sc);
   801f6:	4b08      	ldr	r3, [pc, #32]	; (80218 <Sablier+0x2c>)
   801f8:	681b      	ldr	r3, [r3, #0]
   801fa:	4601      	mov	r1, r0
   801fc:	200c      	movs	r0, #12
   801fe:	4798      	blx	r3
   80200:	bd08      	pop	{r3, pc}
			gpio_set_pin_high(LED0_GPIO);
   80202:	203b      	movs	r0, #59	; 0x3b
   80204:	4b05      	ldr	r3, [pc, #20]	; (8021c <Sablier+0x30>)
   80206:	4798      	blx	r3
			gpio_toggle_pin(LED0_GPIO);
   80208:	203b      	movs	r0, #59	; 0x3b
   8020a:	4b05      	ldr	r3, [pc, #20]	; (80220 <Sablier+0x34>)
   8020c:	4798      	blx	r3
			delay_ms(2000);
   8020e:	4805      	ldr	r0, [pc, #20]	; (80224 <Sablier+0x38>)
   80210:	4b05      	ldr	r3, [pc, #20]	; (80228 <Sablier+0x3c>)
   80212:	4798      	blx	r3
   80214:	bd08      	pop	{r3, pc}
   80216:	bf00      	nop
   80218:	20070138 	.word	0x20070138
   8021c:	000804f3 	.word	0x000804f3
   80220:	00080527 	.word	0x00080527
   80224:	00b71b00 	.word	0x00b71b00
   80228:	20070001 	.word	0x20070001

0008022c <s>:
		}


}
void s(void)
{
   8022c:	b570      	push	{r4, r5, r6, lr}
	gpio_toggle_pin(LED0_GPIO);
   8022e:	203b      	movs	r0, #59	; 0x3b
   80230:	4e05      	ldr	r6, [pc, #20]	; (80248 <s+0x1c>)
   80232:	47b0      	blx	r6
	delay_ms(2000);
   80234:	4d05      	ldr	r5, [pc, #20]	; (8024c <s+0x20>)
   80236:	4628      	mov	r0, r5
   80238:	4c05      	ldr	r4, [pc, #20]	; (80250 <s+0x24>)
   8023a:	47a0      	blx	r4
	gpio_toggle_pin(LED0_GPIO);
   8023c:	203b      	movs	r0, #59	; 0x3b
   8023e:	47b0      	blx	r6
	delay_ms(2000);
   80240:	4628      	mov	r0, r5
   80242:	47a0      	blx	r4
   80244:	bd70      	pop	{r4, r5, r6, pc}
   80246:	bf00      	nop
   80248:	00080527 	.word	0x00080527
   8024c:	00b71b00 	.word	0x00b71b00
   80250:	20070001 	.word	0x20070001

00080254 <main>:
{
   80254:	b500      	push	{lr}
   80256:	b083      	sub	sp, #12
  This function disables IRQ interrupts by setting the I-bit in the CPSR.
  Can only be executed in Privileged modes.
 */
__attribute__( ( always_inline ) ) __STATIC_INLINE void __disable_irq(void)
{
  __ASM volatile ("cpsid i" : : : "memory");
   80258:	b672      	cpsid	i
    This function ensures the apparent order of the explicit memory operations before
    and after the instruction, without ensuring their completion.
 */
__attribute__( ( always_inline ) ) __STATIC_INLINE void __DMB(void)
{
  __ASM volatile ("dmb");
   8025a:	f3bf 8f5f 	dmb	sy
	cpu_irq_disable();
   8025e:	2400      	movs	r4, #0
   80260:	4b0c      	ldr	r3, [pc, #48]	; (80294 <main+0x40>)
   80262:	701c      	strb	r4, [r3, #0]
	sysclk_init();
   80264:	4b0c      	ldr	r3, [pc, #48]	; (80298 <main+0x44>)
   80266:	4798      	blx	r3
	board_init();
   80268:	4b0c      	ldr	r3, [pc, #48]	; (8029c <main+0x48>)
   8026a:	4798      	blx	r3
	gpio_configure_pin(LED0_GPIO, LED0_FLAGS);
   8026c:	f04f 5160 	mov.w	r1, #939524096	; 0x38000000
   80270:	203b      	movs	r0, #59	; 0x3b
   80272:	4b0b      	ldr	r3, [pc, #44]	; (802a0 <main+0x4c>)
   80274:	4798      	blx	r3
	Taskman(TASKMAN_NEW);
   80276:	2064      	movs	r0, #100	; 0x64
   80278:	4d0a      	ldr	r5, [pc, #40]	; (802a4 <main+0x50>)
   8027a:	47a8      	blx	r5
	pushTask(Sablier, s,0 ,0);
   8027c:	9400      	str	r4, [sp, #0]
   8027e:	4623      	mov	r3, r4
   80280:	4a09      	ldr	r2, [pc, #36]	; (802a8 <main+0x54>)
   80282:	490a      	ldr	r1, [pc, #40]	; (802ac <main+0x58>)
   80284:	2066      	movs	r0, #102	; 0x66
   80286:	47a8      	blx	r5
		Taskman(TASKMAN_POP_TASK);
   80288:	2667      	movs	r6, #103	; 0x67
		s();
   8028a:	4c07      	ldr	r4, [pc, #28]	; (802a8 <main+0x54>)
		Taskman(TASKMAN_POP_TASK);
   8028c:	4630      	mov	r0, r6
   8028e:	47a8      	blx	r5
		s();
   80290:	47a0      	blx	r4
   80292:	e7fb      	b.n	8028c <main+0x38>
   80294:	2007013c 	.word	0x2007013c
   80298:	00080371 	.word	0x00080371
   8029c:	000803d5 	.word	0x000803d5
   802a0:	00080549 	.word	0x00080549
   802a4:	000802b1 	.word	0x000802b1
   802a8:	0008022d 	.word	0x0008022d
   802ac:	000801ed 	.word	0x000801ed

000802b0 <Taskman>:

 //Déclaration de l'unique objet Taskman
 t_taskman taskman;

 uint32_t Taskman(uint32_t sc, ...)
 {
   802b0:	b40f      	push	{r0, r1, r2, r3}
   802b2:	b508      	push	{r3, lr}
	uint8_t criticalStatus;
	
	switch(sc)
   802b4:	9902      	ldr	r1, [sp, #8]
   802b6:	2966      	cmp	r1, #102	; 0x66
   802b8:	d019      	beq.n	802ee <Taskman+0x3e>
   802ba:	2967      	cmp	r1, #103	; 0x67
   802bc:	d038      	beq.n	80330 <Taskman+0x80>
   802be:	2964      	cmp	r1, #100	; 0x64
   802c0:	d008      	beq.n	802d4 <Taskman+0x24>
		taskman.pPop++;
		if(taskman.pPop>=tasks+TASKMAN_TASKS_LIST_LEN) taskman.pPop = tasks;
		break;

	default:
		Error(ERR_TASKMAN_SWITCH_BAD_SC, sc);
   802c2:	4b26      	ldr	r3, [pc, #152]	; (8035c <Taskman+0xac>)
   802c4:	681b      	ldr	r3, [r3, #0]
   802c6:	200b      	movs	r0, #11
   802c8:	4798      	blx	r3
	}
	return 0;
   802ca:	2000      	movs	r0, #0
   802cc:	e8bd 4008 	ldmia.w	sp!, {r3, lr}
   802d0:	b004      	add	sp, #16
   802d2:	4770      	bx	lr
		taskman.pPop = taskman.pPush = tasks;
   802d4:	4b22      	ldr	r3, [pc, #136]	; (80360 <Taskman+0xb0>)
   802d6:	4a23      	ldr	r2, [pc, #140]	; (80364 <Taskman+0xb4>)
   802d8:	601a      	str	r2, [r3, #0]
   802da:	605a      	str	r2, [r3, #4]
   802dc:	4b22      	ldr	r3, [pc, #136]	; (80368 <Taskman+0xb8>)
   802de:	f103 01a0 	add.w	r1, r3, #160	; 0xa0
			delayedTasks[i].delay = 0;
   802e2:	2200      	movs	r2, #0
   802e4:	60da      	str	r2, [r3, #12]
   802e6:	3310      	adds	r3, #16
		for (i = 0; i <TASKMAN_DELAYED_TASKS_LIST_LEN; i++)
   802e8:	428b      	cmp	r3, r1
   802ea:	d1fb      	bne.n	802e4 <Taskman+0x34>
   802ec:	e7ed      	b.n	802ca <Taskman+0x1a>
		if(delay_param == 0)
   802ee:	9b06      	ldr	r3, [sp, #24]
   802f0:	2b00      	cmp	r3, #0
   802f2:	d1ea      	bne.n	802ca <Taskman+0x1a>
			taskman.pPush->pFunc = pFunc_param;
   802f4:	4b1a      	ldr	r3, [pc, #104]	; (80360 <Taskman+0xb0>)
   802f6:	681a      	ldr	r2, [r3, #0]
   802f8:	9903      	ldr	r1, [sp, #12]
   802fa:	6011      	str	r1, [r2, #0]
			taskman.pPush->sc = sc_param;
   802fc:	681b      	ldr	r3, [r3, #0]
   802fe:	9a04      	ldr	r2, [sp, #16]
   80300:	605a      	str	r2, [r3, #4]
			taskman.pPush->param = pa_param;
   80302:	9a05      	ldr	r2, [sp, #20]
   80304:	609a      	str	r2, [r3, #8]
			taskman.pPush++;
   80306:	3310      	adds	r3, #16
			if(taskman.pPush>=tasks+TASKMAN_TASKS_LIST_LEN) taskman.pPush = tasks;
   80308:	4a18      	ldr	r2, [pc, #96]	; (8036c <Taskman+0xbc>)
   8030a:	4293      	cmp	r3, r2
   8030c:	d20c      	bcs.n	80328 <Taskman+0x78>
			taskman.pPush++;
   8030e:	4a14      	ldr	r2, [pc, #80]	; (80360 <Taskman+0xb0>)
   80310:	6013      	str	r3, [r2, #0]
			if(taskman.pPush == taskman.pPop) Error(ERR_TASKMAN_TASK_PUSH_BUFFER_FULL, 0);
   80312:	4b13      	ldr	r3, [pc, #76]	; (80360 <Taskman+0xb0>)
   80314:	681a      	ldr	r2, [r3, #0]
   80316:	685b      	ldr	r3, [r3, #4]
   80318:	429a      	cmp	r2, r3
   8031a:	d1d6      	bne.n	802ca <Taskman+0x1a>
   8031c:	4b0f      	ldr	r3, [pc, #60]	; (8035c <Taskman+0xac>)
   8031e:	681b      	ldr	r3, [r3, #0]
   80320:	2100      	movs	r1, #0
   80322:	2015      	movs	r0, #21
   80324:	4798      	blx	r3
   80326:	e7d0      	b.n	802ca <Taskman+0x1a>
			if(taskman.pPush>=tasks+TASKMAN_TASKS_LIST_LEN) taskman.pPush = tasks;
   80328:	4a0e      	ldr	r2, [pc, #56]	; (80364 <Taskman+0xb4>)
   8032a:	4b0d      	ldr	r3, [pc, #52]	; (80360 <Taskman+0xb0>)
   8032c:	601a      	str	r2, [r3, #0]
   8032e:	e7f0      	b.n	80312 <Taskman+0x62>
		if(taskman.pPop == taskman.pPush) return 0; //Buffer empty
   80330:	4a0b      	ldr	r2, [pc, #44]	; (80360 <Taskman+0xb0>)
   80332:	6853      	ldr	r3, [r2, #4]
   80334:	6812      	ldr	r2, [r2, #0]
   80336:	4293      	cmp	r3, r2
   80338:	d0c7      	beq.n	802ca <Taskman+0x1a>
		taskman.pPop->pFunc(taskman.pPop->sc, taskman.pPop->param);
   8033a:	681a      	ldr	r2, [r3, #0]
   8033c:	6899      	ldr	r1, [r3, #8]
   8033e:	6858      	ldr	r0, [r3, #4]
   80340:	4790      	blx	r2
		taskman.pPop++;
   80342:	4b07      	ldr	r3, [pc, #28]	; (80360 <Taskman+0xb0>)
   80344:	685b      	ldr	r3, [r3, #4]
   80346:	3310      	adds	r3, #16
		if(taskman.pPop>=tasks+TASKMAN_TASKS_LIST_LEN) taskman.pPop = tasks;
   80348:	4a08      	ldr	r2, [pc, #32]	; (8036c <Taskman+0xbc>)
   8034a:	4293      	cmp	r3, r2
   8034c:	d202      	bcs.n	80354 <Taskman+0xa4>
		taskman.pPop++;
   8034e:	4a04      	ldr	r2, [pc, #16]	; (80360 <Taskman+0xb0>)
   80350:	6053      	str	r3, [r2, #4]
   80352:	e7ba      	b.n	802ca <Taskman+0x1a>
		if(taskman.pPop>=tasks+TASKMAN_TASKS_LIST_LEN) taskman.pPop = tasks;
   80354:	4a03      	ldr	r2, [pc, #12]	; (80364 <Taskman+0xb4>)
   80356:	4b02      	ldr	r3, [pc, #8]	; (80360 <Taskman+0xb0>)
   80358:	605a      	str	r2, [r3, #4]
   8035a:	e7b6      	b.n	802ca <Taskman+0x1a>
   8035c:	20070138 	.word	0x20070138
   80360:	200706a0 	.word	0x200706a0
   80364:	20070600 	.word	0x20070600
   80368:	200706a8 	.word	0x200706a8
   8036c:	200706a0 	.word	0x200706a0

00080370 <sysclk_init>:
   80370:	b510      	push	{r4, lr}
   80372:	480e      	ldr	r0, [pc, #56]	; (803ac <sysclk_init+0x3c>)
   80374:	4b0e      	ldr	r3, [pc, #56]	; (803b0 <sysclk_init+0x40>)
   80376:	4798      	blx	r3
   80378:	213e      	movs	r1, #62	; 0x3e
   8037a:	2000      	movs	r0, #0
   8037c:	4b0d      	ldr	r3, [pc, #52]	; (803b4 <sysclk_init+0x44>)
   8037e:	4798      	blx	r3
   80380:	4c0d      	ldr	r4, [pc, #52]	; (803b8 <sysclk_init+0x48>)
   80382:	47a0      	blx	r4
   80384:	2800      	cmp	r0, #0
   80386:	d0fc      	beq.n	80382 <sysclk_init+0x12>
   80388:	4b0c      	ldr	r3, [pc, #48]	; (803bc <sysclk_init+0x4c>)
   8038a:	4798      	blx	r3
   8038c:	4a0c      	ldr	r2, [pc, #48]	; (803c0 <sysclk_init+0x50>)
   8038e:	4b0d      	ldr	r3, [pc, #52]	; (803c4 <sysclk_init+0x54>)
   80390:	629a      	str	r2, [r3, #40]	; 0x28
   80392:	4c0d      	ldr	r4, [pc, #52]	; (803c8 <sysclk_init+0x58>)
   80394:	47a0      	blx	r4
   80396:	2800      	cmp	r0, #0
   80398:	d0fc      	beq.n	80394 <sysclk_init+0x24>
   8039a:	2010      	movs	r0, #16
   8039c:	4b0b      	ldr	r3, [pc, #44]	; (803cc <sysclk_init+0x5c>)
   8039e:	4798      	blx	r3
   803a0:	4b0b      	ldr	r3, [pc, #44]	; (803d0 <sysclk_init+0x60>)
   803a2:	4798      	blx	r3
   803a4:	4801      	ldr	r0, [pc, #4]	; (803ac <sysclk_init+0x3c>)
   803a6:	4b02      	ldr	r3, [pc, #8]	; (803b0 <sysclk_init+0x40>)
   803a8:	4798      	blx	r3
   803aa:	bd10      	pop	{r4, pc}
   803ac:	0501bd00 	.word	0x0501bd00
   803b0:	200700b1 	.word	0x200700b1
   803b4:	000807b9 	.word	0x000807b9
   803b8:	0008080d 	.word	0x0008080d
   803bc:	0008081d 	.word	0x0008081d
   803c0:	200d3f01 	.word	0x200d3f01
   803c4:	400e0600 	.word	0x400e0600
   803c8:	0008082d 	.word	0x0008082d
   803cc:	00080755 	.word	0x00080755
   803d0:	0008092d 	.word	0x0008092d

000803d4 <board_init>:
   803d4:	b510      	push	{r4, lr}
   803d6:	f44f 4200 	mov.w	r2, #32768	; 0x8000
   803da:	4b16      	ldr	r3, [pc, #88]	; (80434 <board_init+0x60>)
   803dc:	605a      	str	r2, [r3, #4]
   803de:	200b      	movs	r0, #11
   803e0:	4c15      	ldr	r4, [pc, #84]	; (80438 <board_init+0x64>)
   803e2:	47a0      	blx	r4
   803e4:	200c      	movs	r0, #12
   803e6:	47a0      	blx	r4
   803e8:	200d      	movs	r0, #13
   803ea:	47a0      	blx	r4
   803ec:	200e      	movs	r0, #14
   803ee:	47a0      	blx	r4
   803f0:	f04f 5160 	mov.w	r1, #939524096	; 0x38000000
   803f4:	203b      	movs	r0, #59	; 0x3b
   803f6:	4c11      	ldr	r4, [pc, #68]	; (8043c <board_init+0x68>)
   803f8:	47a0      	blx	r4
   803fa:	f04f 5160 	mov.w	r1, #939524096	; 0x38000000
   803fe:	2055      	movs	r0, #85	; 0x55
   80400:	47a0      	blx	r4
   80402:	f04f 5160 	mov.w	r1, #939524096	; 0x38000000
   80406:	2056      	movs	r0, #86	; 0x56
   80408:	47a0      	blx	r4
   8040a:	490d      	ldr	r1, [pc, #52]	; (80440 <board_init+0x6c>)
   8040c:	2068      	movs	r0, #104	; 0x68
   8040e:	47a0      	blx	r4
   80410:	490c      	ldr	r1, [pc, #48]	; (80444 <board_init+0x70>)
   80412:	205c      	movs	r0, #92	; 0x5c
   80414:	47a0      	blx	r4
   80416:	4a0c      	ldr	r2, [pc, #48]	; (80448 <board_init+0x74>)
   80418:	f44f 7140 	mov.w	r1, #768	; 0x300
   8041c:	480b      	ldr	r0, [pc, #44]	; (8044c <board_init+0x78>)
   8041e:	4b0c      	ldr	r3, [pc, #48]	; (80450 <board_init+0x7c>)
   80420:	4798      	blx	r3
   80422:	f04f 6100 	mov.w	r1, #134217728	; 0x8000000
   80426:	202b      	movs	r0, #43	; 0x2b
   80428:	47a0      	blx	r4
   8042a:	f04f 6100 	mov.w	r1, #134217728	; 0x8000000
   8042e:	202a      	movs	r0, #42	; 0x2a
   80430:	47a0      	blx	r4
   80432:	bd10      	pop	{r4, pc}
   80434:	400e1a50 	.word	0x400e1a50
   80438:	0008083d 	.word	0x0008083d
   8043c:	00080549 	.word	0x00080549
   80440:	28000079 	.word	0x28000079
   80444:	28000001 	.word	0x28000001
   80448:	08000001 	.word	0x08000001
   8044c:	400e0e00 	.word	0x400e0e00
   80450:	00080619 	.word	0x00080619

00080454 <pio_set_peripheral>:
   80454:	6442      	str	r2, [r0, #68]	; 0x44
   80456:	f1b1 5f80 	cmp.w	r1, #268435456	; 0x10000000
   8045a:	d016      	beq.n	8048a <pio_set_peripheral+0x36>
   8045c:	d80b      	bhi.n	80476 <pio_set_peripheral+0x22>
   8045e:	b149      	cbz	r1, 80474 <pio_set_peripheral+0x20>
   80460:	f1b1 6f00 	cmp.w	r1, #134217728	; 0x8000000
   80464:	d105      	bne.n	80472 <pio_set_peripheral+0x1e>
   80466:	6f03      	ldr	r3, [r0, #112]	; 0x70
   80468:	6f01      	ldr	r1, [r0, #112]	; 0x70
   8046a:	400b      	ands	r3, r1
   8046c:	ea23 0302 	bic.w	r3, r3, r2
   80470:	6703      	str	r3, [r0, #112]	; 0x70
   80472:	6042      	str	r2, [r0, #4]
   80474:	4770      	bx	lr
   80476:	f1b1 5f40 	cmp.w	r1, #805306368	; 0x30000000
   8047a:	d0fb      	beq.n	80474 <pio_set_peripheral+0x20>
   8047c:	f1b1 5f60 	cmp.w	r1, #939524096	; 0x38000000
   80480:	d0f8      	beq.n	80474 <pio_set_peripheral+0x20>
   80482:	f1b1 5f20 	cmp.w	r1, #671088640	; 0x28000000
   80486:	d1f4      	bne.n	80472 <pio_set_peripheral+0x1e>
   80488:	4770      	bx	lr
   8048a:	6f03      	ldr	r3, [r0, #112]	; 0x70
   8048c:	4313      	orrs	r3, r2
   8048e:	6703      	str	r3, [r0, #112]	; 0x70
   80490:	e7ef      	b.n	80472 <pio_set_peripheral+0x1e>

00080492 <pio_set_input>:
   80492:	6441      	str	r1, [r0, #68]	; 0x44
   80494:	f012 0f01 	tst.w	r2, #1
   80498:	bf14      	ite	ne
   8049a:	6641      	strne	r1, [r0, #100]	; 0x64
   8049c:	6601      	streq	r1, [r0, #96]	; 0x60
   8049e:	f012 0f0a 	tst.w	r2, #10
   804a2:	bf14      	ite	ne
   804a4:	6201      	strne	r1, [r0, #32]
   804a6:	6241      	streq	r1, [r0, #36]	; 0x24
   804a8:	f012 0f02 	tst.w	r2, #2
   804ac:	d107      	bne.n	804be <pio_set_input+0x2c>
   804ae:	f012 0f08 	tst.w	r2, #8
   804b2:	bf18      	it	ne
   804b4:	f8c0 1084 	strne.w	r1, [r0, #132]	; 0x84
   804b8:	6141      	str	r1, [r0, #20]
   804ba:	6001      	str	r1, [r0, #0]
   804bc:	4770      	bx	lr
   804be:	f8c0 1080 	str.w	r1, [r0, #128]	; 0x80
   804c2:	e7f9      	b.n	804b8 <pio_set_input+0x26>

000804c4 <pio_set_output>:
   804c4:	b410      	push	{r4}
   804c6:	9c01      	ldr	r4, [sp, #4]
   804c8:	6441      	str	r1, [r0, #68]	; 0x44
   804ca:	b944      	cbnz	r4, 804de <pio_set_output+0x1a>
   804cc:	6601      	str	r1, [r0, #96]	; 0x60
   804ce:	b143      	cbz	r3, 804e2 <pio_set_output+0x1e>
   804d0:	6501      	str	r1, [r0, #80]	; 0x50
   804d2:	b942      	cbnz	r2, 804e6 <pio_set_output+0x22>
   804d4:	6341      	str	r1, [r0, #52]	; 0x34
   804d6:	6101      	str	r1, [r0, #16]
   804d8:	6001      	str	r1, [r0, #0]
   804da:	bc10      	pop	{r4}
   804dc:	4770      	bx	lr
   804de:	6641      	str	r1, [r0, #100]	; 0x64
   804e0:	e7f5      	b.n	804ce <pio_set_output+0xa>
   804e2:	6541      	str	r1, [r0, #84]	; 0x54
   804e4:	e7f5      	b.n	804d2 <pio_set_output+0xe>
   804e6:	6301      	str	r1, [r0, #48]	; 0x30
   804e8:	e7f5      	b.n	804d6 <pio_set_output+0x12>

000804ea <pio_get_interrupt_status>:
   804ea:	6cc0      	ldr	r0, [r0, #76]	; 0x4c
   804ec:	4770      	bx	lr

000804ee <pio_get_interrupt_mask>:
   804ee:	6c80      	ldr	r0, [r0, #72]	; 0x48
   804f0:	4770      	bx	lr

000804f2 <pio_set_pin_high>:
   804f2:	0943      	lsrs	r3, r0, #5
   804f4:	f503 1300 	add.w	r3, r3, #2097152	; 0x200000
   804f8:	f203 7307 	addw	r3, r3, #1799	; 0x707
   804fc:	025b      	lsls	r3, r3, #9
   804fe:	f000 001f 	and.w	r0, r0, #31
   80502:	2201      	movs	r2, #1
   80504:	fa02 f000 	lsl.w	r0, r2, r0
   80508:	6318      	str	r0, [r3, #48]	; 0x30
   8050a:	4770      	bx	lr

0008050c <pio_set_pin_low>:
   8050c:	0943      	lsrs	r3, r0, #5
   8050e:	f503 1300 	add.w	r3, r3, #2097152	; 0x200000
   80512:	f203 7307 	addw	r3, r3, #1799	; 0x707
   80516:	025b      	lsls	r3, r3, #9
   80518:	f000 001f 	and.w	r0, r0, #31
   8051c:	2201      	movs	r2, #1
   8051e:	fa02 f000 	lsl.w	r0, r2, r0
   80522:	6358      	str	r0, [r3, #52]	; 0x34
   80524:	4770      	bx	lr

00080526 <pio_toggle_pin>:
   80526:	0943      	lsrs	r3, r0, #5
   80528:	f503 1300 	add.w	r3, r3, #2097152	; 0x200000
   8052c:	f203 7307 	addw	r3, r3, #1799	; 0x707
   80530:	025b      	lsls	r3, r3, #9
   80532:	6b99      	ldr	r1, [r3, #56]	; 0x38
   80534:	f000 021f 	and.w	r2, r0, #31
   80538:	2001      	movs	r0, #1
   8053a:	4090      	lsls	r0, r2
   8053c:	4201      	tst	r1, r0
   8053e:	bf14      	ite	ne
   80540:	6358      	strne	r0, [r3, #52]	; 0x34
   80542:	6318      	streq	r0, [r3, #48]	; 0x30
   80544:	4770      	bx	lr
	...

00080548 <pio_configure_pin>:
   80548:	b570      	push	{r4, r5, r6, lr}
   8054a:	b082      	sub	sp, #8
   8054c:	460d      	mov	r5, r1
   8054e:	0943      	lsrs	r3, r0, #5
   80550:	f503 1300 	add.w	r3, r3, #2097152	; 0x200000
   80554:	f203 7307 	addw	r3, r3, #1799	; 0x707
   80558:	025c      	lsls	r4, r3, #9
   8055a:	f001 43f0 	and.w	r3, r1, #2013265920	; 0x78000000
   8055e:	f1b3 5f20 	cmp.w	r3, #671088640	; 0x28000000
   80562:	d031      	beq.n	805c8 <pio_configure_pin+0x80>
   80564:	d816      	bhi.n	80594 <pio_configure_pin+0x4c>
   80566:	f1b3 6f00 	cmp.w	r3, #134217728	; 0x8000000
   8056a:	d01b      	beq.n	805a4 <pio_configure_pin+0x5c>
   8056c:	f1b3 5f80 	cmp.w	r3, #268435456	; 0x10000000
   80570:	d116      	bne.n	805a0 <pio_configure_pin+0x58>
   80572:	f000 001f 	and.w	r0, r0, #31
   80576:	2601      	movs	r6, #1
   80578:	4086      	lsls	r6, r0
   8057a:	4632      	mov	r2, r6
   8057c:	f04f 5180 	mov.w	r1, #268435456	; 0x10000000
   80580:	4620      	mov	r0, r4
   80582:	4b22      	ldr	r3, [pc, #136]	; (8060c <pio_configure_pin+0xc4>)
   80584:	4798      	blx	r3
   80586:	f015 0f01 	tst.w	r5, #1
   8058a:	bf14      	ite	ne
   8058c:	6666      	strne	r6, [r4, #100]	; 0x64
   8058e:	6626      	streq	r6, [r4, #96]	; 0x60
   80590:	2001      	movs	r0, #1
   80592:	e017      	b.n	805c4 <pio_configure_pin+0x7c>
   80594:	f1b3 5f40 	cmp.w	r3, #805306368	; 0x30000000
   80598:	d021      	beq.n	805de <pio_configure_pin+0x96>
   8059a:	f1b3 5f60 	cmp.w	r3, #939524096	; 0x38000000
   8059e:	d01e      	beq.n	805de <pio_configure_pin+0x96>
   805a0:	2000      	movs	r0, #0
   805a2:	e00f      	b.n	805c4 <pio_configure_pin+0x7c>
   805a4:	f000 001f 	and.w	r0, r0, #31
   805a8:	2601      	movs	r6, #1
   805aa:	4086      	lsls	r6, r0
   805ac:	4632      	mov	r2, r6
   805ae:	f04f 6100 	mov.w	r1, #134217728	; 0x8000000
   805b2:	4620      	mov	r0, r4
   805b4:	4b15      	ldr	r3, [pc, #84]	; (8060c <pio_configure_pin+0xc4>)
   805b6:	4798      	blx	r3
   805b8:	f015 0f01 	tst.w	r5, #1
   805bc:	bf14      	ite	ne
   805be:	6666      	strne	r6, [r4, #100]	; 0x64
   805c0:	6626      	streq	r6, [r4, #96]	; 0x60
   805c2:	2001      	movs	r0, #1
   805c4:	b002      	add	sp, #8
   805c6:	bd70      	pop	{r4, r5, r6, pc}
   805c8:	f000 011f 	and.w	r1, r0, #31
   805cc:	2601      	movs	r6, #1
   805ce:	462a      	mov	r2, r5
   805d0:	fa06 f101 	lsl.w	r1, r6, r1
   805d4:	4620      	mov	r0, r4
   805d6:	4b0e      	ldr	r3, [pc, #56]	; (80610 <pio_configure_pin+0xc8>)
   805d8:	4798      	blx	r3
   805da:	4630      	mov	r0, r6
   805dc:	e7f2      	b.n	805c4 <pio_configure_pin+0x7c>
   805de:	f005 5260 	and.w	r2, r5, #939524096	; 0x38000000
   805e2:	f000 011f 	and.w	r1, r0, #31
   805e6:	2601      	movs	r6, #1
   805e8:	ea05 0306 	and.w	r3, r5, r6
   805ec:	9300      	str	r3, [sp, #0]
   805ee:	f3c5 0380 	ubfx	r3, r5, #2, #1
   805f2:	f1b2 5f60 	cmp.w	r2, #939524096	; 0x38000000
   805f6:	bf14      	ite	ne
   805f8:	2200      	movne	r2, #0
   805fa:	2201      	moveq	r2, #1
   805fc:	fa06 f101 	lsl.w	r1, r6, r1
   80600:	4620      	mov	r0, r4
   80602:	4c04      	ldr	r4, [pc, #16]	; (80614 <pio_configure_pin+0xcc>)
   80604:	47a0      	blx	r4
   80606:	4630      	mov	r0, r6
   80608:	e7dc      	b.n	805c4 <pio_configure_pin+0x7c>
   8060a:	bf00      	nop
   8060c:	00080455 	.word	0x00080455
   80610:	00080493 	.word	0x00080493
   80614:	000804c5 	.word	0x000804c5

00080618 <pio_configure_pin_group>:
   80618:	b570      	push	{r4, r5, r6, lr}
   8061a:	b082      	sub	sp, #8
   8061c:	4605      	mov	r5, r0
   8061e:	460e      	mov	r6, r1
   80620:	4614      	mov	r4, r2
   80622:	f002 43f0 	and.w	r3, r2, #2013265920	; 0x78000000
   80626:	f1b3 5f20 	cmp.w	r3, #671088640	; 0x28000000
   8062a:	d027      	beq.n	8067c <pio_configure_pin_group+0x64>
   8062c:	d811      	bhi.n	80652 <pio_configure_pin_group+0x3a>
   8062e:	f1b3 6f00 	cmp.w	r3, #134217728	; 0x8000000
   80632:	d016      	beq.n	80662 <pio_configure_pin_group+0x4a>
   80634:	f1b3 5f80 	cmp.w	r3, #268435456	; 0x10000000
   80638:	d111      	bne.n	8065e <pio_configure_pin_group+0x46>
   8063a:	460a      	mov	r2, r1
   8063c:	f04f 5180 	mov.w	r1, #268435456	; 0x10000000
   80640:	4b19      	ldr	r3, [pc, #100]	; (806a8 <pio_configure_pin_group+0x90>)
   80642:	4798      	blx	r3
   80644:	f014 0f01 	tst.w	r4, #1
   80648:	bf14      	ite	ne
   8064a:	666e      	strne	r6, [r5, #100]	; 0x64
   8064c:	662e      	streq	r6, [r5, #96]	; 0x60
   8064e:	2001      	movs	r0, #1
   80650:	e012      	b.n	80678 <pio_configure_pin_group+0x60>
   80652:	f1b3 5f40 	cmp.w	r3, #805306368	; 0x30000000
   80656:	d015      	beq.n	80684 <pio_configure_pin_group+0x6c>
   80658:	f1b3 5f60 	cmp.w	r3, #939524096	; 0x38000000
   8065c:	d012      	beq.n	80684 <pio_configure_pin_group+0x6c>
   8065e:	2000      	movs	r0, #0
   80660:	e00a      	b.n	80678 <pio_configure_pin_group+0x60>
   80662:	460a      	mov	r2, r1
   80664:	f04f 6100 	mov.w	r1, #134217728	; 0x8000000
   80668:	4b0f      	ldr	r3, [pc, #60]	; (806a8 <pio_configure_pin_group+0x90>)
   8066a:	4798      	blx	r3
   8066c:	f014 0f01 	tst.w	r4, #1
   80670:	bf14      	ite	ne
   80672:	666e      	strne	r6, [r5, #100]	; 0x64
   80674:	662e      	streq	r6, [r5, #96]	; 0x60
   80676:	2001      	movs	r0, #1
   80678:	b002      	add	sp, #8
   8067a:	bd70      	pop	{r4, r5, r6, pc}
   8067c:	4b0b      	ldr	r3, [pc, #44]	; (806ac <pio_configure_pin_group+0x94>)
   8067e:	4798      	blx	r3
   80680:	2001      	movs	r0, #1
   80682:	e7f9      	b.n	80678 <pio_configure_pin_group+0x60>
   80684:	f004 5260 	and.w	r2, r4, #939524096	; 0x38000000
   80688:	f004 0301 	and.w	r3, r4, #1
   8068c:	9300      	str	r3, [sp, #0]
   8068e:	f3c4 0380 	ubfx	r3, r4, #2, #1
   80692:	f1b2 5f60 	cmp.w	r2, #939524096	; 0x38000000
   80696:	bf14      	ite	ne
   80698:	2200      	movne	r2, #0
   8069a:	2201      	moveq	r2, #1
   8069c:	4631      	mov	r1, r6
   8069e:	4628      	mov	r0, r5
   806a0:	4c03      	ldr	r4, [pc, #12]	; (806b0 <pio_configure_pin_group+0x98>)
   806a2:	47a0      	blx	r4
   806a4:	2001      	movs	r0, #1
   806a6:	e7e7      	b.n	80678 <pio_configure_pin_group+0x60>
   806a8:	00080455 	.word	0x00080455
   806ac:	00080493 	.word	0x00080493
   806b0:	000804c5 	.word	0x000804c5

000806b4 <pio_handler_process>:
   806b4:	e92d 41f0 	stmdb	sp!, {r4, r5, r6, r7, r8, lr}
   806b8:	4604      	mov	r4, r0
   806ba:	4688      	mov	r8, r1
   806bc:	4b0e      	ldr	r3, [pc, #56]	; (806f8 <pio_handler_process+0x44>)
   806be:	4798      	blx	r3
   806c0:	4605      	mov	r5, r0
   806c2:	4620      	mov	r0, r4
   806c4:	4b0d      	ldr	r3, [pc, #52]	; (806fc <pio_handler_process+0x48>)
   806c6:	4798      	blx	r3
   806c8:	4005      	ands	r5, r0
   806ca:	d013      	beq.n	806f4 <pio_handler_process+0x40>
   806cc:	4c0c      	ldr	r4, [pc, #48]	; (80700 <pio_handler_process+0x4c>)
   806ce:	f104 0660 	add.w	r6, r4, #96	; 0x60
   806d2:	e003      	b.n	806dc <pio_handler_process+0x28>
   806d4:	42b4      	cmp	r4, r6
   806d6:	d00d      	beq.n	806f4 <pio_handler_process+0x40>
   806d8:	3410      	adds	r4, #16
   806da:	b15d      	cbz	r5, 806f4 <pio_handler_process+0x40>
   806dc:	6820      	ldr	r0, [r4, #0]
   806de:	4540      	cmp	r0, r8
   806e0:	d1f8      	bne.n	806d4 <pio_handler_process+0x20>
   806e2:	6861      	ldr	r1, [r4, #4]
   806e4:	4229      	tst	r1, r5
   806e6:	d0f5      	beq.n	806d4 <pio_handler_process+0x20>
   806e8:	68e3      	ldr	r3, [r4, #12]
   806ea:	4798      	blx	r3
   806ec:	6863      	ldr	r3, [r4, #4]
   806ee:	ea25 0503 	bic.w	r5, r5, r3
   806f2:	e7ef      	b.n	806d4 <pio_handler_process+0x20>
   806f4:	e8bd 81f0 	ldmia.w	sp!, {r4, r5, r6, r7, r8, pc}
   806f8:	000804eb 	.word	0x000804eb
   806fc:	000804ef 	.word	0x000804ef
   80700:	20070590 	.word	0x20070590

00080704 <PIOA_Handler>:
   80704:	b508      	push	{r3, lr}
   80706:	210b      	movs	r1, #11
   80708:	4801      	ldr	r0, [pc, #4]	; (80710 <PIOA_Handler+0xc>)
   8070a:	4b02      	ldr	r3, [pc, #8]	; (80714 <PIOA_Handler+0x10>)
   8070c:	4798      	blx	r3
   8070e:	bd08      	pop	{r3, pc}
   80710:	400e0e00 	.word	0x400e0e00
   80714:	000806b5 	.word	0x000806b5

00080718 <PIOB_Handler>:
   80718:	b508      	push	{r3, lr}
   8071a:	210c      	movs	r1, #12
   8071c:	4801      	ldr	r0, [pc, #4]	; (80724 <PIOB_Handler+0xc>)
   8071e:	4b02      	ldr	r3, [pc, #8]	; (80728 <PIOB_Handler+0x10>)
   80720:	4798      	blx	r3
   80722:	bd08      	pop	{r3, pc}
   80724:	400e1000 	.word	0x400e1000
   80728:	000806b5 	.word	0x000806b5

0008072c <PIOC_Handler>:
   8072c:	b508      	push	{r3, lr}
   8072e:	210d      	movs	r1, #13
   80730:	4801      	ldr	r0, [pc, #4]	; (80738 <PIOC_Handler+0xc>)
   80732:	4b02      	ldr	r3, [pc, #8]	; (8073c <PIOC_Handler+0x10>)
   80734:	4798      	blx	r3
   80736:	bd08      	pop	{r3, pc}
   80738:	400e1200 	.word	0x400e1200
   8073c:	000806b5 	.word	0x000806b5

00080740 <PIOD_Handler>:
   80740:	b508      	push	{r3, lr}
   80742:	210e      	movs	r1, #14
   80744:	4801      	ldr	r0, [pc, #4]	; (8074c <PIOD_Handler+0xc>)
   80746:	4b02      	ldr	r3, [pc, #8]	; (80750 <PIOD_Handler+0x10>)
   80748:	4798      	blx	r3
   8074a:	bd08      	pop	{r3, pc}
   8074c:	400e1400 	.word	0x400e1400
   80750:	000806b5 	.word	0x000806b5

00080754 <pmc_switch_mck_to_pllack>:
   80754:	4a17      	ldr	r2, [pc, #92]	; (807b4 <pmc_switch_mck_to_pllack+0x60>)
   80756:	6b13      	ldr	r3, [r2, #48]	; 0x30
   80758:	f023 0370 	bic.w	r3, r3, #112	; 0x70
   8075c:	4318      	orrs	r0, r3
   8075e:	6310      	str	r0, [r2, #48]	; 0x30
   80760:	6e93      	ldr	r3, [r2, #104]	; 0x68
   80762:	f013 0f08 	tst.w	r3, #8
   80766:	d10a      	bne.n	8077e <pmc_switch_mck_to_pllack+0x2a>
   80768:	f44f 6300 	mov.w	r3, #2048	; 0x800
   8076c:	4911      	ldr	r1, [pc, #68]	; (807b4 <pmc_switch_mck_to_pllack+0x60>)
   8076e:	6e8a      	ldr	r2, [r1, #104]	; 0x68
   80770:	f012 0f08 	tst.w	r2, #8
   80774:	d103      	bne.n	8077e <pmc_switch_mck_to_pllack+0x2a>
   80776:	3b01      	subs	r3, #1
   80778:	d1f9      	bne.n	8076e <pmc_switch_mck_to_pllack+0x1a>
   8077a:	2001      	movs	r0, #1
   8077c:	4770      	bx	lr
   8077e:	4a0d      	ldr	r2, [pc, #52]	; (807b4 <pmc_switch_mck_to_pllack+0x60>)
   80780:	6b13      	ldr	r3, [r2, #48]	; 0x30
   80782:	f023 0303 	bic.w	r3, r3, #3
   80786:	f043 0302 	orr.w	r3, r3, #2
   8078a:	6313      	str	r3, [r2, #48]	; 0x30
   8078c:	6e93      	ldr	r3, [r2, #104]	; 0x68
   8078e:	f013 0f08 	tst.w	r3, #8
   80792:	d10a      	bne.n	807aa <pmc_switch_mck_to_pllack+0x56>
   80794:	f44f 6300 	mov.w	r3, #2048	; 0x800
   80798:	4906      	ldr	r1, [pc, #24]	; (807b4 <pmc_switch_mck_to_pllack+0x60>)
   8079a:	6e8a      	ldr	r2, [r1, #104]	; 0x68
   8079c:	f012 0f08 	tst.w	r2, #8
   807a0:	d105      	bne.n	807ae <pmc_switch_mck_to_pllack+0x5a>
   807a2:	3b01      	subs	r3, #1
   807a4:	d1f9      	bne.n	8079a <pmc_switch_mck_to_pllack+0x46>
   807a6:	2001      	movs	r0, #1
   807a8:	4770      	bx	lr
   807aa:	2000      	movs	r0, #0
   807ac:	4770      	bx	lr
   807ae:	2000      	movs	r0, #0
   807b0:	4770      	bx	lr
   807b2:	bf00      	nop
   807b4:	400e0600 	.word	0x400e0600

000807b8 <pmc_switch_mainck_to_xtal>:
   807b8:	b9c8      	cbnz	r0, 807ee <pmc_switch_mainck_to_xtal+0x36>
   807ba:	4a11      	ldr	r2, [pc, #68]	; (80800 <pmc_switch_mainck_to_xtal+0x48>)
   807bc:	6a13      	ldr	r3, [r2, #32]
   807be:	0209      	lsls	r1, r1, #8
   807c0:	b289      	uxth	r1, r1
   807c2:	f423 135c 	bic.w	r3, r3, #3604480	; 0x370000
   807c6:	f023 0303 	bic.w	r3, r3, #3
   807ca:	f443 135c 	orr.w	r3, r3, #3604480	; 0x370000
   807ce:	f043 0301 	orr.w	r3, r3, #1
   807d2:	430b      	orrs	r3, r1
   807d4:	6213      	str	r3, [r2, #32]
   807d6:	6e93      	ldr	r3, [r2, #104]	; 0x68
   807d8:	f013 0f01 	tst.w	r3, #1
   807dc:	d0fb      	beq.n	807d6 <pmc_switch_mainck_to_xtal+0x1e>
   807de:	4a08      	ldr	r2, [pc, #32]	; (80800 <pmc_switch_mainck_to_xtal+0x48>)
   807e0:	6a13      	ldr	r3, [r2, #32]
   807e2:	f043 739b 	orr.w	r3, r3, #20316160	; 0x1360000
   807e6:	f443 3380 	orr.w	r3, r3, #65536	; 0x10000
   807ea:	6213      	str	r3, [r2, #32]
   807ec:	4770      	bx	lr
   807ee:	4904      	ldr	r1, [pc, #16]	; (80800 <pmc_switch_mainck_to_xtal+0x48>)
   807f0:	6a0b      	ldr	r3, [r1, #32]
   807f2:	4a04      	ldr	r2, [pc, #16]	; (80804 <pmc_switch_mainck_to_xtal+0x4c>)
   807f4:	401a      	ands	r2, r3
   807f6:	4b04      	ldr	r3, [pc, #16]	; (80808 <pmc_switch_mainck_to_xtal+0x50>)
   807f8:	4313      	orrs	r3, r2
   807fa:	620b      	str	r3, [r1, #32]
   807fc:	4770      	bx	lr
   807fe:	bf00      	nop
   80800:	400e0600 	.word	0x400e0600
   80804:	fec8fffc 	.word	0xfec8fffc
   80808:	01370002 	.word	0x01370002

0008080c <pmc_osc_is_ready_mainck>:
   8080c:	4b02      	ldr	r3, [pc, #8]	; (80818 <pmc_osc_is_ready_mainck+0xc>)
   8080e:	6e98      	ldr	r0, [r3, #104]	; 0x68
   80810:	f400 3080 	and.w	r0, r0, #65536	; 0x10000
   80814:	4770      	bx	lr
   80816:	bf00      	nop
   80818:	400e0600 	.word	0x400e0600

0008081c <pmc_disable_pllack>:
   8081c:	f04f 5200 	mov.w	r2, #536870912	; 0x20000000
   80820:	4b01      	ldr	r3, [pc, #4]	; (80828 <pmc_disable_pllack+0xc>)
   80822:	629a      	str	r2, [r3, #40]	; 0x28
   80824:	4770      	bx	lr
   80826:	bf00      	nop
   80828:	400e0600 	.word	0x400e0600

0008082c <pmc_is_locked_pllack>:
   8082c:	4b02      	ldr	r3, [pc, #8]	; (80838 <pmc_is_locked_pllack+0xc>)
   8082e:	6e98      	ldr	r0, [r3, #104]	; 0x68
   80830:	f000 0002 	and.w	r0, r0, #2
   80834:	4770      	bx	lr
   80836:	bf00      	nop
   80838:	400e0600 	.word	0x400e0600

0008083c <pmc_enable_periph_clk>:
   8083c:	282c      	cmp	r0, #44	; 0x2c
   8083e:	d81e      	bhi.n	8087e <pmc_enable_periph_clk+0x42>
   80840:	281f      	cmp	r0, #31
   80842:	d80c      	bhi.n	8085e <pmc_enable_periph_clk+0x22>
   80844:	4b11      	ldr	r3, [pc, #68]	; (8088c <pmc_enable_periph_clk+0x50>)
   80846:	699a      	ldr	r2, [r3, #24]
   80848:	2301      	movs	r3, #1
   8084a:	4083      	lsls	r3, r0
   8084c:	4393      	bics	r3, r2
   8084e:	d018      	beq.n	80882 <pmc_enable_periph_clk+0x46>
   80850:	2301      	movs	r3, #1
   80852:	fa03 f000 	lsl.w	r0, r3, r0
   80856:	4b0d      	ldr	r3, [pc, #52]	; (8088c <pmc_enable_periph_clk+0x50>)
   80858:	6118      	str	r0, [r3, #16]
   8085a:	2000      	movs	r0, #0
   8085c:	4770      	bx	lr
   8085e:	3820      	subs	r0, #32
   80860:	4b0a      	ldr	r3, [pc, #40]	; (8088c <pmc_enable_periph_clk+0x50>)
   80862:	f8d3 2108 	ldr.w	r2, [r3, #264]	; 0x108
   80866:	2301      	movs	r3, #1
   80868:	4083      	lsls	r3, r0
   8086a:	4393      	bics	r3, r2
   8086c:	d00b      	beq.n	80886 <pmc_enable_periph_clk+0x4a>
   8086e:	2301      	movs	r3, #1
   80870:	fa03 f000 	lsl.w	r0, r3, r0
   80874:	4b05      	ldr	r3, [pc, #20]	; (8088c <pmc_enable_periph_clk+0x50>)
   80876:	f8c3 0100 	str.w	r0, [r3, #256]	; 0x100
   8087a:	2000      	movs	r0, #0
   8087c:	4770      	bx	lr
   8087e:	2001      	movs	r0, #1
   80880:	4770      	bx	lr
   80882:	2000      	movs	r0, #0
   80884:	4770      	bx	lr
   80886:	2000      	movs	r0, #0
   80888:	4770      	bx	lr
   8088a:	bf00      	nop
   8088c:	400e0600 	.word	0x400e0600

00080890 <Dummy_Handler>:
   80890:	e7fe      	b.n	80890 <Dummy_Handler>
	...

00080894 <Reset_Handler>:
   80894:	b508      	push	{r3, lr}
   80896:	4b1c      	ldr	r3, [pc, #112]	; (80908 <Reset_Handler+0x74>)
   80898:	4a1c      	ldr	r2, [pc, #112]	; (8090c <Reset_Handler+0x78>)
   8089a:	429a      	cmp	r2, r3
   8089c:	d010      	beq.n	808c0 <Reset_Handler+0x2c>
   8089e:	4b1c      	ldr	r3, [pc, #112]	; (80910 <Reset_Handler+0x7c>)
   808a0:	4a19      	ldr	r2, [pc, #100]	; (80908 <Reset_Handler+0x74>)
   808a2:	429a      	cmp	r2, r3
   808a4:	d20c      	bcs.n	808c0 <Reset_Handler+0x2c>
   808a6:	3b01      	subs	r3, #1
   808a8:	1a9b      	subs	r3, r3, r2
   808aa:	f023 0303 	bic.w	r3, r3, #3
   808ae:	3304      	adds	r3, #4
   808b0:	4413      	add	r3, r2
   808b2:	4916      	ldr	r1, [pc, #88]	; (8090c <Reset_Handler+0x78>)
   808b4:	f851 0b04 	ldr.w	r0, [r1], #4
   808b8:	f842 0b04 	str.w	r0, [r2], #4
   808bc:	429a      	cmp	r2, r3
   808be:	d1f9      	bne.n	808b4 <Reset_Handler+0x20>
   808c0:	4b14      	ldr	r3, [pc, #80]	; (80914 <Reset_Handler+0x80>)
   808c2:	4a15      	ldr	r2, [pc, #84]	; (80918 <Reset_Handler+0x84>)
   808c4:	429a      	cmp	r2, r3
   808c6:	d20a      	bcs.n	808de <Reset_Handler+0x4a>
   808c8:	3b01      	subs	r3, #1
   808ca:	1a9b      	subs	r3, r3, r2
   808cc:	f023 0303 	bic.w	r3, r3, #3
   808d0:	3304      	adds	r3, #4
   808d2:	4413      	add	r3, r2
   808d4:	2100      	movs	r1, #0
   808d6:	f842 1b04 	str.w	r1, [r2], #4
   808da:	4293      	cmp	r3, r2
   808dc:	d1fb      	bne.n	808d6 <Reset_Handler+0x42>
   808de:	4b0f      	ldr	r3, [pc, #60]	; (8091c <Reset_Handler+0x88>)
   808e0:	f023 4260 	bic.w	r2, r3, #3758096384	; 0xe0000000
   808e4:	f022 027f 	bic.w	r2, r2, #127	; 0x7f
   808e8:	490d      	ldr	r1, [pc, #52]	; (80920 <Reset_Handler+0x8c>)
   808ea:	608a      	str	r2, [r1, #8]
   808ec:	f103 4360 	add.w	r3, r3, #3758096384	; 0xe0000000
   808f0:	f5b3 1f80 	cmp.w	r3, #1048576	; 0x100000
   808f4:	d203      	bcs.n	808fe <Reset_Handler+0x6a>
   808f6:	688b      	ldr	r3, [r1, #8]
   808f8:	f043 5300 	orr.w	r3, r3, #536870912	; 0x20000000
   808fc:	608b      	str	r3, [r1, #8]
   808fe:	4b09      	ldr	r3, [pc, #36]	; (80924 <Reset_Handler+0x90>)
   80900:	4798      	blx	r3
   80902:	4b09      	ldr	r3, [pc, #36]	; (80928 <Reset_Handler+0x94>)
   80904:	4798      	blx	r3
   80906:	e7fe      	b.n	80906 <Reset_Handler+0x72>
   80908:	20070000 	.word	0x20070000
   8090c:	00080bdc 	.word	0x00080bdc
   80910:	20070574 	.word	0x20070574
   80914:	2007076c 	.word	0x2007076c
   80918:	20070574 	.word	0x20070574
   8091c:	00080000 	.word	0x00080000
   80920:	e000ed00 	.word	0xe000ed00
   80924:	00080a45 	.word	0x00080a45
   80928:	00080255 	.word	0x00080255

0008092c <SystemCoreClockUpdate>:
   8092c:	4b3d      	ldr	r3, [pc, #244]	; (80a24 <SystemCoreClockUpdate+0xf8>)
   8092e:	6b1b      	ldr	r3, [r3, #48]	; 0x30
   80930:	f003 0303 	and.w	r3, r3, #3
   80934:	2b03      	cmp	r3, #3
   80936:	d80e      	bhi.n	80956 <SystemCoreClockUpdate+0x2a>
   80938:	e8df f003 	tbb	[pc, r3]
   8093c:	38381c02 	.word	0x38381c02
   80940:	4b39      	ldr	r3, [pc, #228]	; (80a28 <SystemCoreClockUpdate+0xfc>)
   80942:	695b      	ldr	r3, [r3, #20]
   80944:	f013 0f80 	tst.w	r3, #128	; 0x80
   80948:	bf14      	ite	ne
   8094a:	f44f 4200 	movne.w	r2, #32768	; 0x8000
   8094e:	f44f 42fa 	moveq.w	r2, #32000	; 0x7d00
   80952:	4b36      	ldr	r3, [pc, #216]	; (80a2c <SystemCoreClockUpdate+0x100>)
   80954:	601a      	str	r2, [r3, #0]
   80956:	4b33      	ldr	r3, [pc, #204]	; (80a24 <SystemCoreClockUpdate+0xf8>)
   80958:	6b1b      	ldr	r3, [r3, #48]	; 0x30
   8095a:	f003 0370 	and.w	r3, r3, #112	; 0x70
   8095e:	2b70      	cmp	r3, #112	; 0x70
   80960:	d057      	beq.n	80a12 <SystemCoreClockUpdate+0xe6>
   80962:	4b30      	ldr	r3, [pc, #192]	; (80a24 <SystemCoreClockUpdate+0xf8>)
   80964:	6b1a      	ldr	r2, [r3, #48]	; 0x30
   80966:	4931      	ldr	r1, [pc, #196]	; (80a2c <SystemCoreClockUpdate+0x100>)
   80968:	f3c2 1202 	ubfx	r2, r2, #4, #3
   8096c:	680b      	ldr	r3, [r1, #0]
   8096e:	40d3      	lsrs	r3, r2
   80970:	600b      	str	r3, [r1, #0]
   80972:	4770      	bx	lr
   80974:	4b2b      	ldr	r3, [pc, #172]	; (80a24 <SystemCoreClockUpdate+0xf8>)
   80976:	6a1b      	ldr	r3, [r3, #32]
   80978:	f013 7f80 	tst.w	r3, #16777216	; 0x1000000
   8097c:	d003      	beq.n	80986 <SystemCoreClockUpdate+0x5a>
   8097e:	4a2c      	ldr	r2, [pc, #176]	; (80a30 <SystemCoreClockUpdate+0x104>)
   80980:	4b2a      	ldr	r3, [pc, #168]	; (80a2c <SystemCoreClockUpdate+0x100>)
   80982:	601a      	str	r2, [r3, #0]
   80984:	e7e7      	b.n	80956 <SystemCoreClockUpdate+0x2a>
   80986:	4a2b      	ldr	r2, [pc, #172]	; (80a34 <SystemCoreClockUpdate+0x108>)
   80988:	4b28      	ldr	r3, [pc, #160]	; (80a2c <SystemCoreClockUpdate+0x100>)
   8098a:	601a      	str	r2, [r3, #0]
   8098c:	4b25      	ldr	r3, [pc, #148]	; (80a24 <SystemCoreClockUpdate+0xf8>)
   8098e:	6a1b      	ldr	r3, [r3, #32]
   80990:	f003 0370 	and.w	r3, r3, #112	; 0x70
   80994:	2b10      	cmp	r3, #16
   80996:	d005      	beq.n	809a4 <SystemCoreClockUpdate+0x78>
   80998:	2b20      	cmp	r3, #32
   8099a:	d1dc      	bne.n	80956 <SystemCoreClockUpdate+0x2a>
   8099c:	4a24      	ldr	r2, [pc, #144]	; (80a30 <SystemCoreClockUpdate+0x104>)
   8099e:	4b23      	ldr	r3, [pc, #140]	; (80a2c <SystemCoreClockUpdate+0x100>)
   809a0:	601a      	str	r2, [r3, #0]
   809a2:	e7d8      	b.n	80956 <SystemCoreClockUpdate+0x2a>
   809a4:	4a24      	ldr	r2, [pc, #144]	; (80a38 <SystemCoreClockUpdate+0x10c>)
   809a6:	4b21      	ldr	r3, [pc, #132]	; (80a2c <SystemCoreClockUpdate+0x100>)
   809a8:	601a      	str	r2, [r3, #0]
   809aa:	e7d4      	b.n	80956 <SystemCoreClockUpdate+0x2a>
   809ac:	4b1d      	ldr	r3, [pc, #116]	; (80a24 <SystemCoreClockUpdate+0xf8>)
   809ae:	6a1b      	ldr	r3, [r3, #32]
   809b0:	f013 7f80 	tst.w	r3, #16777216	; 0x1000000
   809b4:	d00c      	beq.n	809d0 <SystemCoreClockUpdate+0xa4>
   809b6:	4a1e      	ldr	r2, [pc, #120]	; (80a30 <SystemCoreClockUpdate+0x104>)
   809b8:	4b1c      	ldr	r3, [pc, #112]	; (80a2c <SystemCoreClockUpdate+0x100>)
   809ba:	601a      	str	r2, [r3, #0]
   809bc:	4b19      	ldr	r3, [pc, #100]	; (80a24 <SystemCoreClockUpdate+0xf8>)
   809be:	6b1b      	ldr	r3, [r3, #48]	; 0x30
   809c0:	f003 0303 	and.w	r3, r3, #3
   809c4:	2b02      	cmp	r3, #2
   809c6:	d016      	beq.n	809f6 <SystemCoreClockUpdate+0xca>
   809c8:	4a1c      	ldr	r2, [pc, #112]	; (80a3c <SystemCoreClockUpdate+0x110>)
   809ca:	4b18      	ldr	r3, [pc, #96]	; (80a2c <SystemCoreClockUpdate+0x100>)
   809cc:	601a      	str	r2, [r3, #0]
   809ce:	e7c2      	b.n	80956 <SystemCoreClockUpdate+0x2a>
   809d0:	4a18      	ldr	r2, [pc, #96]	; (80a34 <SystemCoreClockUpdate+0x108>)
   809d2:	4b16      	ldr	r3, [pc, #88]	; (80a2c <SystemCoreClockUpdate+0x100>)
   809d4:	601a      	str	r2, [r3, #0]
   809d6:	4b13      	ldr	r3, [pc, #76]	; (80a24 <SystemCoreClockUpdate+0xf8>)
   809d8:	6a1b      	ldr	r3, [r3, #32]
   809da:	f003 0370 	and.w	r3, r3, #112	; 0x70
   809de:	2b10      	cmp	r3, #16
   809e0:	d005      	beq.n	809ee <SystemCoreClockUpdate+0xc2>
   809e2:	2b20      	cmp	r3, #32
   809e4:	d1ea      	bne.n	809bc <SystemCoreClockUpdate+0x90>
   809e6:	4a12      	ldr	r2, [pc, #72]	; (80a30 <SystemCoreClockUpdate+0x104>)
   809e8:	4b10      	ldr	r3, [pc, #64]	; (80a2c <SystemCoreClockUpdate+0x100>)
   809ea:	601a      	str	r2, [r3, #0]
   809ec:	e7e6      	b.n	809bc <SystemCoreClockUpdate+0x90>
   809ee:	4a12      	ldr	r2, [pc, #72]	; (80a38 <SystemCoreClockUpdate+0x10c>)
   809f0:	4b0e      	ldr	r3, [pc, #56]	; (80a2c <SystemCoreClockUpdate+0x100>)
   809f2:	601a      	str	r2, [r3, #0]
   809f4:	e7e2      	b.n	809bc <SystemCoreClockUpdate+0x90>
   809f6:	4a0b      	ldr	r2, [pc, #44]	; (80a24 <SystemCoreClockUpdate+0xf8>)
   809f8:	6a91      	ldr	r1, [r2, #40]	; 0x28
   809fa:	6a92      	ldr	r2, [r2, #40]	; 0x28
   809fc:	480b      	ldr	r0, [pc, #44]	; (80a2c <SystemCoreClockUpdate+0x100>)
   809fe:	f3c1 410a 	ubfx	r1, r1, #16, #11
   80a02:	6803      	ldr	r3, [r0, #0]
   80a04:	fb01 3303 	mla	r3, r1, r3, r3
   80a08:	b2d2      	uxtb	r2, r2
   80a0a:	fbb3 f3f2 	udiv	r3, r3, r2
   80a0e:	6003      	str	r3, [r0, #0]
   80a10:	e7a1      	b.n	80956 <SystemCoreClockUpdate+0x2a>
   80a12:	4a06      	ldr	r2, [pc, #24]	; (80a2c <SystemCoreClockUpdate+0x100>)
   80a14:	6813      	ldr	r3, [r2, #0]
   80a16:	490a      	ldr	r1, [pc, #40]	; (80a40 <SystemCoreClockUpdate+0x114>)
   80a18:	fba1 1303 	umull	r1, r3, r1, r3
   80a1c:	085b      	lsrs	r3, r3, #1
   80a1e:	6013      	str	r3, [r2, #0]
   80a20:	4770      	bx	lr
   80a22:	bf00      	nop
   80a24:	400e0600 	.word	0x400e0600
   80a28:	400e1a10 	.word	0x400e1a10
   80a2c:	20070140 	.word	0x20070140
   80a30:	00b71b00 	.word	0x00b71b00
   80a34:	003d0900 	.word	0x003d0900
   80a38:	007a1200 	.word	0x007a1200
   80a3c:	0e4e1c00 	.word	0x0e4e1c00
   80a40:	aaaaaaab 	.word	0xaaaaaaab

00080a44 <__libc_init_array>:
   80a44:	b570      	push	{r4, r5, r6, lr}
   80a46:	4e0f      	ldr	r6, [pc, #60]	; (80a84 <__libc_init_array+0x40>)
   80a48:	4d0f      	ldr	r5, [pc, #60]	; (80a88 <__libc_init_array+0x44>)
   80a4a:	1b76      	subs	r6, r6, r5
   80a4c:	10b6      	asrs	r6, r6, #2
   80a4e:	bf18      	it	ne
   80a50:	2400      	movne	r4, #0
   80a52:	d005      	beq.n	80a60 <__libc_init_array+0x1c>
   80a54:	3401      	adds	r4, #1
   80a56:	f855 3b04 	ldr.w	r3, [r5], #4
   80a5a:	4798      	blx	r3
   80a5c:	42a6      	cmp	r6, r4
   80a5e:	d1f9      	bne.n	80a54 <__libc_init_array+0x10>
   80a60:	4e0a      	ldr	r6, [pc, #40]	; (80a8c <__libc_init_array+0x48>)
   80a62:	4d0b      	ldr	r5, [pc, #44]	; (80a90 <__libc_init_array+0x4c>)
   80a64:	f000 f8a8 	bl	80bb8 <_init>
   80a68:	1b76      	subs	r6, r6, r5
   80a6a:	10b6      	asrs	r6, r6, #2
   80a6c:	bf18      	it	ne
   80a6e:	2400      	movne	r4, #0
   80a70:	d006      	beq.n	80a80 <__libc_init_array+0x3c>
   80a72:	3401      	adds	r4, #1
   80a74:	f855 3b04 	ldr.w	r3, [r5], #4
   80a78:	4798      	blx	r3
   80a7a:	42a6      	cmp	r6, r4
   80a7c:	d1f9      	bne.n	80a72 <__libc_init_array+0x2e>
   80a7e:	bd70      	pop	{r4, r5, r6, pc}
   80a80:	bd70      	pop	{r4, r5, r6, pc}
   80a82:	bf00      	nop
   80a84:	00080bc4 	.word	0x00080bc4
   80a88:	00080bc4 	.word	0x00080bc4
   80a8c:	00080bcc 	.word	0x00080bcc
   80a90:	00080bc4 	.word	0x00080bc4

00080a94 <register_fini>:
   80a94:	4b02      	ldr	r3, [pc, #8]	; (80aa0 <register_fini+0xc>)
   80a96:	b113      	cbz	r3, 80a9e <register_fini+0xa>
   80a98:	4802      	ldr	r0, [pc, #8]	; (80aa4 <register_fini+0x10>)
   80a9a:	f000 b805 	b.w	80aa8 <atexit>
   80a9e:	4770      	bx	lr
   80aa0:	00000000 	.word	0x00000000
   80aa4:	00080ab5 	.word	0x00080ab5

00080aa8 <atexit>:
   80aa8:	2300      	movs	r3, #0
   80aaa:	4601      	mov	r1, r0
   80aac:	461a      	mov	r2, r3
   80aae:	4618      	mov	r0, r3
   80ab0:	f000 b81e 	b.w	80af0 <__register_exitproc>

00080ab4 <__libc_fini_array>:
   80ab4:	b538      	push	{r3, r4, r5, lr}
   80ab6:	4c0a      	ldr	r4, [pc, #40]	; (80ae0 <__libc_fini_array+0x2c>)
   80ab8:	4d0a      	ldr	r5, [pc, #40]	; (80ae4 <__libc_fini_array+0x30>)
   80aba:	1b64      	subs	r4, r4, r5
   80abc:	10a4      	asrs	r4, r4, #2
   80abe:	d00a      	beq.n	80ad6 <__libc_fini_array+0x22>
   80ac0:	f104 4380 	add.w	r3, r4, #1073741824	; 0x40000000
   80ac4:	3b01      	subs	r3, #1
   80ac6:	eb05 0583 	add.w	r5, r5, r3, lsl #2
   80aca:	3c01      	subs	r4, #1
   80acc:	f855 3904 	ldr.w	r3, [r5], #-4
   80ad0:	4798      	blx	r3
   80ad2:	2c00      	cmp	r4, #0
   80ad4:	d1f9      	bne.n	80aca <__libc_fini_array+0x16>
   80ad6:	e8bd 4038 	ldmia.w	sp!, {r3, r4, r5, lr}
   80ada:	f000 b877 	b.w	80bcc <_fini>
   80ade:	bf00      	nop
   80ae0:	00080bdc 	.word	0x00080bdc
   80ae4:	00080bd8 	.word	0x00080bd8

00080ae8 <__retarget_lock_acquire_recursive>:
   80ae8:	4770      	bx	lr
   80aea:	bf00      	nop

00080aec <__retarget_lock_release_recursive>:
   80aec:	4770      	bx	lr
   80aee:	bf00      	nop

00080af0 <__register_exitproc>:
   80af0:	e92d 43f8 	stmdb	sp!, {r3, r4, r5, r6, r7, r8, r9, lr}
   80af4:	4d2c      	ldr	r5, [pc, #176]	; (80ba8 <__register_exitproc+0xb8>)
   80af6:	4606      	mov	r6, r0
   80af8:	6828      	ldr	r0, [r5, #0]
   80afa:	4698      	mov	r8, r3
   80afc:	460f      	mov	r7, r1
   80afe:	4691      	mov	r9, r2
   80b00:	f7ff fff2 	bl	80ae8 <__retarget_lock_acquire_recursive>
   80b04:	4b29      	ldr	r3, [pc, #164]	; (80bac <__register_exitproc+0xbc>)
   80b06:	681c      	ldr	r4, [r3, #0]
   80b08:	f8d4 3148 	ldr.w	r3, [r4, #328]	; 0x148
   80b0c:	2b00      	cmp	r3, #0
   80b0e:	d03e      	beq.n	80b8e <__register_exitproc+0x9e>
   80b10:	685a      	ldr	r2, [r3, #4]
   80b12:	2a1f      	cmp	r2, #31
   80b14:	dc1c      	bgt.n	80b50 <__register_exitproc+0x60>
   80b16:	f102 0e01 	add.w	lr, r2, #1
   80b1a:	b176      	cbz	r6, 80b3a <__register_exitproc+0x4a>
   80b1c:	2101      	movs	r1, #1
   80b1e:	eb03 0482 	add.w	r4, r3, r2, lsl #2
   80b22:	f8c4 9088 	str.w	r9, [r4, #136]	; 0x88
   80b26:	f8d3 0188 	ldr.w	r0, [r3, #392]	; 0x188
   80b2a:	4091      	lsls	r1, r2
   80b2c:	4308      	orrs	r0, r1
   80b2e:	2e02      	cmp	r6, #2
   80b30:	f8c3 0188 	str.w	r0, [r3, #392]	; 0x188
   80b34:	f8c4 8108 	str.w	r8, [r4, #264]	; 0x108
   80b38:	d023      	beq.n	80b82 <__register_exitproc+0x92>
   80b3a:	3202      	adds	r2, #2
   80b3c:	f8c3 e004 	str.w	lr, [r3, #4]
   80b40:	6828      	ldr	r0, [r5, #0]
   80b42:	f843 7022 	str.w	r7, [r3, r2, lsl #2]
   80b46:	f7ff ffd1 	bl	80aec <__retarget_lock_release_recursive>
   80b4a:	2000      	movs	r0, #0
   80b4c:	e8bd 83f8 	ldmia.w	sp!, {r3, r4, r5, r6, r7, r8, r9, pc}
   80b50:	4b17      	ldr	r3, [pc, #92]	; (80bb0 <__register_exitproc+0xc0>)
   80b52:	b30b      	cbz	r3, 80b98 <__register_exitproc+0xa8>
   80b54:	f44f 70c8 	mov.w	r0, #400	; 0x190
   80b58:	f3af 8000 	nop.w
   80b5c:	4603      	mov	r3, r0
   80b5e:	b1d8      	cbz	r0, 80b98 <__register_exitproc+0xa8>
   80b60:	2000      	movs	r0, #0
   80b62:	f8d4 1148 	ldr.w	r1, [r4, #328]	; 0x148
   80b66:	f04f 0e01 	mov.w	lr, #1
   80b6a:	6058      	str	r0, [r3, #4]
   80b6c:	6019      	str	r1, [r3, #0]
   80b6e:	4602      	mov	r2, r0
   80b70:	f8c4 3148 	str.w	r3, [r4, #328]	; 0x148
   80b74:	f8c3 0188 	str.w	r0, [r3, #392]	; 0x188
   80b78:	f8c3 018c 	str.w	r0, [r3, #396]	; 0x18c
   80b7c:	2e00      	cmp	r6, #0
   80b7e:	d0dc      	beq.n	80b3a <__register_exitproc+0x4a>
   80b80:	e7cc      	b.n	80b1c <__register_exitproc+0x2c>
   80b82:	f8d3 018c 	ldr.w	r0, [r3, #396]	; 0x18c
   80b86:	4301      	orrs	r1, r0
   80b88:	f8c3 118c 	str.w	r1, [r3, #396]	; 0x18c
   80b8c:	e7d5      	b.n	80b3a <__register_exitproc+0x4a>
   80b8e:	f504 73a6 	add.w	r3, r4, #332	; 0x14c
   80b92:	f8c4 3148 	str.w	r3, [r4, #328]	; 0x148
   80b96:	e7bb      	b.n	80b10 <__register_exitproc+0x20>
   80b98:	6828      	ldr	r0, [r5, #0]
   80b9a:	f7ff ffa7 	bl	80aec <__retarget_lock_release_recursive>
   80b9e:	f04f 30ff 	mov.w	r0, #4294967295
   80ba2:	e8bd 83f8 	ldmia.w	sp!, {r3, r4, r5, r6, r7, r8, r9, pc}
   80ba6:	bf00      	nop
   80ba8:	20070570 	.word	0x20070570
   80bac:	00080bb4 	.word	0x00080bb4
   80bb0:	00000000 	.word	0x00000000

00080bb4 <_global_impure_ptr>:
   80bb4:	20070148                                H.. 

00080bb8 <_init>:
   80bb8:	b5f8      	push	{r3, r4, r5, r6, r7, lr}
   80bba:	bf00      	nop
   80bbc:	bcf8      	pop	{r3, r4, r5, r6, r7}
   80bbe:	bc08      	pop	{r3}
   80bc0:	469e      	mov	lr, r3
   80bc2:	4770      	bx	lr

00080bc4 <__init_array_start>:
   80bc4:	00080a95 	.word	0x00080a95

00080bc8 <__frame_dummy_init_array_entry>:
   80bc8:	00080119                                ....

00080bcc <_fini>:
   80bcc:	b5f8      	push	{r3, r4, r5, r6, r7, lr}
   80bce:	bf00      	nop
   80bd0:	bcf8      	pop	{r3, r4, r5, r6, r7}
   80bd2:	bc08      	pop	{r3}
   80bd4:	469e      	mov	lr, r3
   80bd6:	4770      	bx	lr

00080bd8 <__fini_array_start>:
   80bd8:	000800f5 	.word	0x000800f5

Disassembly of section .relocate:

20070000 <portable_delay_cycles>:
20070000:	f3bf 8f5f 	dmb	sy
20070004:	3801      	subs	r0, #1
20070006:	d1fb      	bne.n	20070000 <portable_delay_cycles>
20070008:	4770      	bx	lr
	...

2007000c <SystemInit>:
2007000c:	f44f 6380 	mov.w	r3, #1024	; 0x400
20070010:	4a20      	ldr	r2, [pc, #128]	; (20070094 <SystemInit+0x88>)
20070012:	6013      	str	r3, [r2, #0]
20070014:	f502 7200 	add.w	r2, r2, #512	; 0x200
20070018:	6013      	str	r3, [r2, #0]
2007001a:	4b1f      	ldr	r3, [pc, #124]	; (20070098 <SystemInit+0x8c>)
2007001c:	6a1b      	ldr	r3, [r3, #32]
2007001e:	f013 7f80 	tst.w	r3, #16777216	; 0x1000000
20070022:	d107      	bne.n	20070034 <SystemInit+0x28>
20070024:	4a1d      	ldr	r2, [pc, #116]	; (2007009c <SystemInit+0x90>)
20070026:	4b1c      	ldr	r3, [pc, #112]	; (20070098 <SystemInit+0x8c>)
20070028:	621a      	str	r2, [r3, #32]
2007002a:	461a      	mov	r2, r3
2007002c:	6e93      	ldr	r3, [r2, #104]	; 0x68
2007002e:	f013 0f01 	tst.w	r3, #1
20070032:	d0fb      	beq.n	2007002c <SystemInit+0x20>
20070034:	4a1a      	ldr	r2, [pc, #104]	; (200700a0 <SystemInit+0x94>)
20070036:	4b18      	ldr	r3, [pc, #96]	; (20070098 <SystemInit+0x8c>)
20070038:	621a      	str	r2, [r3, #32]
2007003a:	461a      	mov	r2, r3
2007003c:	6e93      	ldr	r3, [r2, #104]	; 0x68
2007003e:	f413 3f80 	tst.w	r3, #65536	; 0x10000
20070042:	d0fb      	beq.n	2007003c <SystemInit+0x30>
20070044:	4a14      	ldr	r2, [pc, #80]	; (20070098 <SystemInit+0x8c>)
20070046:	6b13      	ldr	r3, [r2, #48]	; 0x30
20070048:	f023 0303 	bic.w	r3, r3, #3
2007004c:	f043 0301 	orr.w	r3, r3, #1
20070050:	6313      	str	r3, [r2, #48]	; 0x30
20070052:	6e93      	ldr	r3, [r2, #104]	; 0x68
20070054:	f013 0f08 	tst.w	r3, #8
20070058:	d0fb      	beq.n	20070052 <SystemInit+0x46>
2007005a:	4a12      	ldr	r2, [pc, #72]	; (200700a4 <SystemInit+0x98>)
2007005c:	4b0e      	ldr	r3, [pc, #56]	; (20070098 <SystemInit+0x8c>)
2007005e:	629a      	str	r2, [r3, #40]	; 0x28
20070060:	461a      	mov	r2, r3
20070062:	6e93      	ldr	r3, [r2, #104]	; 0x68
20070064:	f013 0f02 	tst.w	r3, #2
20070068:	d0fb      	beq.n	20070062 <SystemInit+0x56>
2007006a:	2211      	movs	r2, #17
2007006c:	4b0a      	ldr	r3, [pc, #40]	; (20070098 <SystemInit+0x8c>)
2007006e:	631a      	str	r2, [r3, #48]	; 0x30
20070070:	461a      	mov	r2, r3
20070072:	6e93      	ldr	r3, [r2, #104]	; 0x68
20070074:	f013 0f08 	tst.w	r3, #8
20070078:	d0fb      	beq.n	20070072 <SystemInit+0x66>
2007007a:	2212      	movs	r2, #18
2007007c:	4b06      	ldr	r3, [pc, #24]	; (20070098 <SystemInit+0x8c>)
2007007e:	631a      	str	r2, [r3, #48]	; 0x30
20070080:	461a      	mov	r2, r3
20070082:	6e93      	ldr	r3, [r2, #104]	; 0x68
20070084:	f013 0f08 	tst.w	r3, #8
20070088:	d0fb      	beq.n	20070082 <SystemInit+0x76>
2007008a:	4a07      	ldr	r2, [pc, #28]	; (200700a8 <SystemInit+0x9c>)
2007008c:	4b07      	ldr	r3, [pc, #28]	; (200700ac <SystemInit+0xa0>)
2007008e:	601a      	str	r2, [r3, #0]
20070090:	4770      	bx	lr
20070092:	bf00      	nop
20070094:	400e0a00 	.word	0x400e0a00
20070098:	400e0600 	.word	0x400e0600
2007009c:	00370809 	.word	0x00370809
200700a0:	01370809 	.word	0x01370809
200700a4:	200d3f01 	.word	0x200d3f01
200700a8:	0501bd00 	.word	0x0501bd00
200700ac:	20070140 	.word	0x20070140

200700b0 <system_init_flash>:
200700b0:	4b1b      	ldr	r3, [pc, #108]	; (20070120 <system_init_flash+0x70>)
200700b2:	4298      	cmp	r0, r3
200700b4:	d915      	bls.n	200700e2 <system_init_flash+0x32>
200700b6:	4b1b      	ldr	r3, [pc, #108]	; (20070124 <system_init_flash+0x74>)
200700b8:	4298      	cmp	r0, r3
200700ba:	d919      	bls.n	200700f0 <system_init_flash+0x40>
200700bc:	4b1a      	ldr	r3, [pc, #104]	; (20070128 <system_init_flash+0x78>)
200700be:	4298      	cmp	r0, r3
200700c0:	d91e      	bls.n	20070100 <system_init_flash+0x50>
200700c2:	4b1a      	ldr	r3, [pc, #104]	; (2007012c <system_init_flash+0x7c>)
200700c4:	4298      	cmp	r0, r3
200700c6:	d923      	bls.n	20070110 <system_init_flash+0x60>
200700c8:	4b19      	ldr	r3, [pc, #100]	; (20070130 <system_init_flash+0x80>)
200700ca:	4298      	cmp	r0, r3
200700cc:	bf94      	ite	ls
200700ce:	f44f 6380 	movls.w	r3, #1024	; 0x400
200700d2:	f44f 63a0 	movhi.w	r3, #1280	; 0x500
200700d6:	4a17      	ldr	r2, [pc, #92]	; (20070134 <system_init_flash+0x84>)
200700d8:	6013      	str	r3, [r2, #0]
200700da:	f502 7200 	add.w	r2, r2, #512	; 0x200
200700de:	6013      	str	r3, [r2, #0]
200700e0:	4770      	bx	lr
200700e2:	2300      	movs	r3, #0
200700e4:	4a13      	ldr	r2, [pc, #76]	; (20070134 <system_init_flash+0x84>)
200700e6:	6013      	str	r3, [r2, #0]
200700e8:	f502 7200 	add.w	r2, r2, #512	; 0x200
200700ec:	6013      	str	r3, [r2, #0]
200700ee:	4770      	bx	lr
200700f0:	f44f 7380 	mov.w	r3, #256	; 0x100
200700f4:	4a0f      	ldr	r2, [pc, #60]	; (20070134 <system_init_flash+0x84>)
200700f6:	6013      	str	r3, [r2, #0]
200700f8:	f502 7200 	add.w	r2, r2, #512	; 0x200
200700fc:	6013      	str	r3, [r2, #0]
200700fe:	4770      	bx	lr
20070100:	f44f 7300 	mov.w	r3, #512	; 0x200
20070104:	4a0b      	ldr	r2, [pc, #44]	; (20070134 <system_init_flash+0x84>)
20070106:	6013      	str	r3, [r2, #0]
20070108:	f502 7200 	add.w	r2, r2, #512	; 0x200
2007010c:	6013      	str	r3, [r2, #0]
2007010e:	4770      	bx	lr
20070110:	f44f 7340 	mov.w	r3, #768	; 0x300
20070114:	4a07      	ldr	r2, [pc, #28]	; (20070134 <system_init_flash+0x84>)
20070116:	6013      	str	r3, [r2, #0]
20070118:	f502 7200 	add.w	r2, r2, #512	; 0x200
2007011c:	6013      	str	r3, [r2, #0]
2007011e:	4770      	bx	lr
20070120:	0121eabf 	.word	0x0121eabf
20070124:	02faf07f 	.word	0x02faf07f
20070128:	03d08fff 	.word	0x03d08fff
2007012c:	04c4b3ff 	.word	0x04c4b3ff
20070130:	055d4a7f 	.word	0x055d4a7f
20070134:	400e0a00 	.word	0x400e0a00

20070138 <pErrorFunc>:
20070138:	00080161                                a...

2007013c <g_interrupt_enabled>:
2007013c:	00000001                                ....

20070140 <SystemCoreClock>:
20070140:	003d0900 00000000                       ..=.....

20070148 <impure_data>:
20070148:	00000000 20070434 2007049c 20070504     ....4.. ... ... 
	...
200701f0:	00000001 00000000 abcd330e e66d1234     .........3..4.m.
20070200:	0005deec 0000000b 00000000 00000000     ................
	...

20070570 <__atexit_recursive_mutex>:
20070570:	20070748                                H.. 
